target datalayout = "e-m:e-p270:32:32-p271:32:32-p272:64:64-i64:64-i128:128-f80:128-n8:16:32:64-S128"
target triple = "x86_64-pc-linux-gnu"

%struct.H5G_loc_t = type { ptr, ptr }
%struct.H5VL_loc_params_t = type { i32, i32, %union.anon }
%union.anon = type { %struct.H5VL_loc_by_idx }
%struct.H5VL_loc_by_idx = type { ptr, i32, i32, i64, i64 }
%struct.H5VL_loc_by_name = type { ptr, i64 }
%struct.H5G_link_iterate_t = type { i32, %union.anon.7 }
%union.anon.7 = type { ptr }
%struct.H5VL_optional_args_t = type { i32, ptr }
%struct.H5VL_native_group_iterate_old_t = type { %struct.H5VL_loc_params_t, i64, ptr, ptr, ptr }
%struct.H5VL_native_group_get_objinfo_t = type { %struct.H5VL_loc_params_t, i8, ptr }

@.str = private unnamed_addr constant [110 x i8] c"generated/home/dtcxzyw/WorkSpace/Projects/compilers/llvm-opt-benchmark/bench/hdf5/hdf5/src/H5VLnative_group.c\00", align 1
@H5E_ARGS_g = external global i64, align 8
@H5E_BADTYPE_g = external global i64, align 8
@.str.1 = private unnamed_addr constant [26 x i8] c"not a file or file object\00", align 1
@H5E_SYM_g = external global i64, align 8
@H5E_CANTGET_g = external global i64, align 8
@H5E_VOL_g = external global i64, align 8
@H5E_UNSUPPORTED_g = external global i64, align 8
@__func__.H5VL__native_group_optional = private unnamed_addr constant [28 x i8] c"H5VL__native_group_optional\00", align 1
@H5E_BADITER_g = external global i64, align 8
@.str.17 = private unnamed_addr constant [35 x i8] c"error iterating over group's links\00", align 1
@.str.18 = private unnamed_addr constant [19 x i8] c"cannot stat object\00", align 1
@.str.19 = private unnamed_addr constant [27 x i8] c"invalid optional operation\00", align 1

; Function Attrs: nounwind uwtable
define i32 @H5VL__native_group_optional(ptr noundef %0, ptr noundef %1, i64 noundef %2, ptr noundef %3) #0 {
  %5 = alloca ptr, align 8
  %6 = alloca ptr, align 8
  %7 = alloca i64, align 8
  %8 = alloca ptr, align 8
  %9 = alloca ptr, align 8
  %10 = alloca i32, align 4
  %11 = alloca i8, align 1
  %12 = alloca ptr, align 8
  %13 = alloca %struct.H5G_link_iterate_t, align 8
  %14 = alloca %struct.H5G_loc_t, align 8
  %15 = alloca ptr, align 8
  %16 = alloca %struct.H5G_loc_t, align 8
  store ptr %0, ptr %5, align 8
  store ptr %1, ptr %6, align 8
  store i64 %2, ptr %7, align 8
  store ptr %3, ptr %8, align 8
  %17 = load ptr, ptr %6, align 8
  %18 = getelementptr inbounds %struct.H5VL_optional_args_t, ptr %17, i32 0, i32 1
  %19 = load ptr, ptr %18, align 8
  store ptr %19, ptr %9, align 8
  store i32 0, ptr %10, align 4
  store i8 0, ptr %11, align 1
  %20 = load ptr, ptr %6, align 8
  %21 = getelementptr inbounds %struct.H5VL_optional_args_t, ptr %20, i32 0, i32 0
  %22 = load i32, ptr %21, align 8
  switch i32 %22, label %131 [
    i32 0, label %23
    i32 1, label %76
  ]

23:                                               ; preds = %4
  %24 = load ptr, ptr %9, align 8
  store ptr %24, ptr %12, align 8
  %25 = load ptr, ptr %5, align 8
  %26 = load ptr, ptr %12, align 8
  %27 = getelementptr inbounds %struct.H5VL_native_group_iterate_old_t, ptr %26, i32 0, i32 0
  %28 = getelementptr inbounds %struct.H5VL_loc_params_t, ptr %27, i32 0, i32 0
  %29 = load i32, ptr %28, align 8
  %30 = call i32 @H5G_loc_real(ptr noundef %25, i32 noundef %29, ptr noundef %14)
  %31 = icmp slt i32 %30, 0
  br i1 %31, label %32, label %47

32:                                               ; preds = %23
  br label %33

33:                                               ; preds = %32
  br label %34

34:                                               ; preds = %33
  br label %35

35:                                               ; preds = %34
  %36 = load i64, ptr @H5E_ARGS_g, align 8
  %37 = load i64, ptr @H5E_BADTYPE_g, align 8
  %38 = call i32 (ptr, ptr, i32, i64, i64, ptr, ...) @H5E_printf_stack(ptr noundef @.str, ptr noundef @__func__.H5VL__native_group_optional, i32 noundef 339, i64 noundef %36, i64 noundef %37, ptr noundef @.str.1)
  br label %39

39:                                               ; preds = %35
  store i8 1, ptr %11, align 1
  %40 = load i8, ptr %11, align 1
  %41 = trunc i8 %40 to i1
  %42 = zext i1 %41 to i8
  store i8 %42, ptr %11, align 1
  br label %43

43:                                               ; preds = %39
  br label %44

44:                                               ; preds = %43
  store i32 -1, ptr %10, align 4
  br label %147

45:                                               ; No predecessors!
  br label %46

46:                                               ; preds = %45
  br label %47

47:                                               ; preds = %46, %23
  %48 = getelementptr inbounds %struct.H5G_link_iterate_t, ptr %13, i32 0, i32 0
  store i32 0, ptr %48, align 8
  %49 = load ptr, ptr %12, align 8
  %50 = getelementptr inbounds %struct.H5VL_native_group_iterate_old_t, ptr %49, i32 0, i32 3
  %51 = load ptr, ptr %50, align 8
  %52 = getelementptr inbounds %struct.H5G_link_iterate_t, ptr %13, i32 0, i32 1
  store ptr %51, ptr %52, align 8
  %53 = load ptr, ptr %12, align 8
  %54 = getelementptr inbounds %struct.H5VL_native_group_iterate_old_t, ptr %53, i32 0, i32 0
  %55 = getelementptr inbounds %struct.H5VL_loc_params_t, ptr %54, i32 0, i32 2
  %56 = getelementptr inbounds %struct.H5VL_loc_by_name, ptr %55, i32 0, i32 0
  %57 = load ptr, ptr %56, align 8
  %58 = load ptr, ptr %12, align 8
  %59 = getelementptr inbounds %struct.H5VL_native_group_iterate_old_t, ptr %58, i32 0, i32 1
  %60 = load i64, ptr %59, align 8
  %61 = load ptr, ptr %12, align 8
  %62 = getelementptr inbounds %struct.H5VL_native_group_iterate_old_t, ptr %61, i32 0, i32 2
  %63 = load ptr, ptr %62, align 8
  %64 = load ptr, ptr %12, align 8
  %65 = getelementptr inbounds %struct.H5VL_native_group_iterate_old_t, ptr %64, i32 0, i32 4
  %66 = load ptr, ptr %65, align 8
  %67 = call i32 @H5G_iterate(ptr noundef %14, ptr noundef %57, i32 noundef 0, i32 noundef 0, i64 noundef %60, ptr noundef %63, ptr noundef %13, ptr noundef %66)
  store i32 %67, ptr %10, align 4
  %68 = icmp slt i32 %67, 0
  br i1 %68, label %69, label %75

69:                                               ; preds = %47
  br label %70

70:                                               ; preds = %69
  %71 = load i64, ptr @H5E_SYM_g, align 8
  %72 = load i64, ptr @H5E_BADITER_g, align 8
  %73 = call i32 (ptr, ptr, i32, i64, i64, ptr, ...) @H5E_printf_stack(ptr noundef @.str, ptr noundef @__func__.H5VL__native_group_optional, i32 noundef 349, i64 noundef %71, i64 noundef %72, ptr noundef @.str.17)
  br label %74

74:                                               ; preds = %70
  br label %75

75:                                               ; preds = %74, %47
  br label %146

76:                                               ; preds = %4
  %77 = load ptr, ptr %9, align 8
  store ptr %77, ptr %15, align 8
  %78 = load ptr, ptr %5, align 8
  %79 = load ptr, ptr %15, align 8
  %80 = getelementptr inbounds %struct.H5VL_native_group_get_objinfo_t, ptr %79, i32 0, i32 0
  %81 = getelementptr inbounds %struct.H5VL_loc_params_t, ptr %80, i32 0, i32 0
  %82 = load i32, ptr %81, align 8
  %83 = call i32 @H5G_loc_real(ptr noundef %78, i32 noundef %82, ptr noundef %16)
  %84 = icmp slt i32 %83, 0
  br i1 %84, label %85, label %100

85:                                               ; preds = %76
  br label %86

86:                                               ; preds = %85
  br label %87

87:                                               ; preds = %86
  br label %88

88:                                               ; preds = %87
  %89 = load i64, ptr @H5E_ARGS_g, align 8
  %90 = load i64, ptr @H5E_BADTYPE_g, align 8
  %91 = call i32 (ptr, ptr, i32, i64, i64, ptr, ...) @H5E_printf_stack(ptr noundef @.str, ptr noundef @__func__.H5VL__native_group_optional, i32 noundef 361, i64 noundef %89, i64 noundef %90, ptr noundef @.str.1)
  br label %92

92:                                               ; preds = %88
  store i8 1, ptr %11, align 1
  %93 = load i8, ptr %11, align 1
  %94 = trunc i8 %93 to i1
  %95 = zext i1 %94 to i8
  store i8 %95, ptr %11, align 1
  br label %96

96:                                               ; preds = %92
  br label %97

97:                                               ; preds = %96
  store i32 -1, ptr %10, align 4
  br label %147

98:                                               ; No predecessors!
  br label %99

99:                                               ; preds = %98
  br label %100

100:                                              ; preds = %99, %76
  %101 = load ptr, ptr %15, align 8
  %102 = getelementptr inbounds %struct.H5VL_native_group_get_objinfo_t, ptr %101, i32 0, i32 0
  %103 = getelementptr inbounds %struct.H5VL_loc_params_t, ptr %102, i32 0, i32 2
  %104 = getelementptr inbounds %struct.H5VL_loc_by_name, ptr %103, i32 0, i32 0
  %105 = load ptr, ptr %104, align 8
  %106 = load ptr, ptr %15, align 8
  %107 = getelementptr inbounds %struct.H5VL_native_group_get_objinfo_t, ptr %106, i32 0, i32 1
  %108 = load i8, ptr %107, align 8
  %109 = trunc i8 %108 to i1
  %110 = load ptr, ptr %15, align 8
  %111 = getelementptr inbounds %struct.H5VL_native_group_get_objinfo_t, ptr %110, i32 0, i32 2
  %112 = load ptr, ptr %111, align 8
  %113 = call i32 @H5G__get_objinfo(ptr noundef %16, ptr noundef %105, i1 noundef zeroext %109, ptr noundef %112)
  %114 = icmp slt i32 %113, 0
  br i1 %114, label %115, label %130

115:                                              ; preds = %100
  br label %116

116:                                              ; preds = %115
  br label %117

117:                                              ; preds = %116
  br label %118

118:                                              ; preds = %117
  %119 = load i64, ptr @H5E_SYM_g, align 8
  %120 = load i64, ptr @H5E_CANTGET_g, align 8
  %121 = call i32 (ptr, ptr, i32, i64, i64, ptr, ...) @H5E_printf_stack(ptr noundef @.str, ptr noundef @__func__.H5VL__native_group_optional, i32 noundef 366, i64 noundef %119, i64 noundef %120, ptr noundef @.str.18)
  br label %122

122:                                              ; preds = %118
  store i8 1, ptr %11, align 1
  %123 = load i8, ptr %11, align 1
  %124 = trunc i8 %123 to i1
  %125 = zext i1 %124 to i8
  store i8 %125, ptr %11, align 1
  br label %126

126:                                              ; preds = %122
  br label %127

127:                                              ; preds = %126
  store i32 -1, ptr %10, align 4
  br label %147

128:                                              ; No predecessors!
  br label %129

129:                                              ; preds = %128
  br label %130

130:                                              ; preds = %129, %100
  br label %146

131:                                              ; preds = %4
  br label %132

132:                                              ; preds = %131
  br label %133

133:                                              ; preds = %132
  br label %134

134:                                              ; preds = %133
  %135 = load i64, ptr @H5E_VOL_g, align 8
  %136 = load i64, ptr @H5E_UNSUPPORTED_g, align 8
  %137 = call i32 (ptr, ptr, i32, i64, i64, ptr, ...) @H5E_printf_stack(ptr noundef @.str, ptr noundef @__func__.H5VL__native_group_optional, i32 noundef 373, i64 noundef %135, i64 noundef %136, ptr noundef @.str.19)
  br label %138

138:                                              ; preds = %134
  store i8 1, ptr %11, align 1
  %139 = load i8, ptr %11, align 1
  %140 = trunc i8 %139 to i1
  %141 = zext i1 %140 to i8
  store i8 %141, ptr %11, align 1
  br label %142

142:                                              ; preds = %138
  br label %143

143:                                              ; preds = %142
  store i32 -1, ptr %10, align 4
  br label %147

144:                                              ; No predecessors!
  br label %145

145:                                              ; preds = %144
  br label %146

146:                                              ; preds = %145, %130, %75
  br label %147

147:                                              ; preds = %146, %143, %127, %97, %44
  %148 = load i32, ptr %10, align 4
  ret i32 %148
}