; Function Attrs: nounwind uwtable
define i32 @H5VL__native_group_optional(ptr noundef %0, ptr nocapture noundef readonly %1, i64 noundef %2, ptr nocapture noundef readnone %3) local_unnamed_addr #0 {
  %5 = alloca %struct.H5G_link_iterate_t, align 8
  %6 = alloca %struct.H5G_loc_t, align 8
  %7 = alloca %struct.H5G_loc_t, align 8
  %8 = getelementptr inbounds i8, ptr %1, i64 8
  %9 = load ptr, ptr %8, align 8
  %10 = load i32, ptr %1, align 8
  switch i32 %10, label %59 [
    i32 0, label %11
    i32 1, label %37
  ]

11:                                               ; preds = %4
  %12 = load i32, ptr %9, align 8
  %13 = call i32 @H5G_loc_real(ptr noundef %0, i32 noundef %12, ptr noundef nonnull %6) #3
  %14 = icmp slt i32 %13, 0
  br i1 %14, label %15, label %19

15:                                               ; preds = %11
  %16 = load i64, ptr @H5E_ARGS_g, align 8
  %17 = load i64, ptr @H5E_BADTYPE_g, align 8
  %18 = call i32 (ptr, ptr, i32, i64, i64, ptr, ...) @H5E_printf_stack(ptr noundef nonnull @.str, ptr noundef nonnull @__func__.H5VL__native_group_optional, i32 noundef 339, i64 noundef %16, i64 noundef %17, ptr noundef nonnull @.str.1) #3
  br label %63

19:                                               ; preds = %11
  store i32 0, ptr %5, align 8
  %20 = getelementptr inbounds i8, ptr %9, i64 56
  %21 = load ptr, ptr %20, align 8
  %22 = getelementptr inbounds i8, ptr %5, i64 8
  store ptr %21, ptr %22, align 8
  %23 = getelementptr inbounds i8, ptr %9, i64 8
  %24 = load ptr, ptr %23, align 8
  %25 = getelementptr inbounds i8, ptr %9, i64 40
  %26 = load i64, ptr %25, align 8
  %27 = getelementptr inbounds i8, ptr %9, i64 48
  %28 = load ptr, ptr %27, align 8
  %29 = getelementptr inbounds i8, ptr %9, i64 64
  %30 = load ptr, ptr %29, align 8
  %31 = call i32 @H5G_iterate(ptr noundef nonnull %6, ptr noundef %24, i32 noundef 0, i32 noundef 0, i64 noundef %26, ptr noundef %28, ptr noundef nonnull %5, ptr noundef %30) #3
  %32 = icmp slt i32 %31, 0
  br i1 %32, label %33, label %63

33:                                               ; preds = %19
  %34 = load i64, ptr @H5E_SYM_g, align 8
  %35 = load i64, ptr @H5E_BADITER_g, align 8
  %36 = call i32 (ptr, ptr, i32, i64, i64, ptr, ...) @H5E_printf_stack(ptr noundef nonnull @.str, ptr noundef nonnull @__func__.H5VL__native_group_optional, i32 noundef 349, i64 noundef %34, i64 noundef %35, ptr noundef nonnull @.str.17) #3
  br label %63

37:                                               ; preds = %4
  %38 = load i32, ptr %9, align 8
  %39 = call i32 @H5G_loc_real(ptr noundef %0, i32 noundef %38, ptr noundef nonnull %7) #3
  %40 = icmp slt i32 %39, 0
  br i1 %40, label %41, label %45

41:                                               ; preds = %37
  %42 = load i64, ptr @H5E_ARGS_g, align 8
  %43 = load i64, ptr @H5E_BADTYPE_g, align 8
  %44 = call i32 (ptr, ptr, i32, i64, i64, ptr, ...) @H5E_printf_stack(ptr noundef nonnull @.str, ptr noundef nonnull @__func__.H5VL__native_group_optional, i32 noundef 361, i64 noundef %42, i64 noundef %43, ptr noundef nonnull @.str.1) #3
  br label %63

45:                                               ; preds = %37
  %46 = getelementptr inbounds i8, ptr %9, i64 8
  %47 = load ptr, ptr %46, align 8
  %48 = getelementptr inbounds i8, ptr %9, i64 40
  %49 = load i8, ptr %48, align 8
  %50 = trunc i8 %49 to i1
  %51 = getelementptr inbounds i8, ptr %9, i64 48
  %52 = load ptr, ptr %51, align 8
  %53 = call i32 @H5G__get_objinfo(ptr noundef nonnull %7, ptr noundef %47, i1 noundef zeroext %50, ptr noundef %52) #3
  %54 = icmp slt i32 %53, 0
  br i1 %54, label %55, label %63

55:                                               ; preds = %45
  %56 = load i64, ptr @H5E_SYM_g, align 8
  %57 = load i64, ptr @H5E_CANTGET_g, align 8
  %58 = call i32 (ptr, ptr, i32, i64, i64, ptr, ...) @H5E_printf_stack(ptr noundef nonnull @.str, ptr noundef nonnull @__func__.H5VL__native_group_optional, i32 noundef 366, i64 noundef %56, i64 noundef %57, ptr noundef nonnull @.str.18) #3
  br label %63

59:                                               ; preds = %4
  %60 = load i64, ptr @H5E_VOL_g, align 8
  %61 = load i64, ptr @H5E_UNSUPPORTED_g, align 8
  %62 = tail call i32 (ptr, ptr, i32, i64, i64, ptr, ...) @H5E_printf_stack(ptr noundef nonnull @.str, ptr noundef nonnull @__func__.H5VL__native_group_optional, i32 noundef 373, i64 noundef %60, i64 noundef %61, ptr noundef nonnull @.str.19) #3
  br label %63

63:                                               ; preds = %33, %19, %45, %59, %55, %41, %15
  %.0 = phi i32 [ -1, %59 ], [ -1, %41 ], [ -1, %55 ], [ 0, %45 ], [ -1, %15 ], [ %31, %33 ], [ %31, %19 ]
  ret i32 %.0
}